; Function Attrs: mustprogress uwtable
define hidden noundef float @_ZN2TH22THFile_readFloatScalarEPNS_8THFile__E(ptr noundef %0) local_unnamed_addr #3 {
  %2 = alloca float, align 4
  call void @llvm.lifetime.start.p0(i64 4, ptr nonnull %2) #8
  %3 = load ptr, ptr %0, align 8, !tbaa !3
  %4 = getelementptr inbounds nuw i8, ptr %3, i64 48
  %5 = load ptr, ptr %4, align 8, !tbaa !16
  %6 = call noundef i64 %5(ptr noundef nonnull %0, ptr noundef nonnull %2, i64 noundef 1)
  %7 = load float, ptr %2, align 4, !tbaa !37
  call void @llvm.lifetime.end.p0(i64 4, ptr nonnull %2) #8
  ret float %7
}